Certificate:
    Data:
        Version: 3 (0x2)
        Serial Number: 17736479702072667857 (0xf624a2512ff7aed1)
    Signature Algorithm: sha256WithRSAEncryption
        Issuer: C=EU, O=UNICORE, CN=Demo CA
        Validity
            Not Before: Dec  4 14:29:08 2014 GMT
            Not After : Nov 29 14:29:08 2034 GMT
        Subject: C=EU, O=UNICORE, CN=Demo TSI
        Subject Public Key Info:
            Public Key Algorithm: rsaEncryption
                Public-Key: (1024 bit)
                Modulus:
                    00:f0:02:65:b0:02:54:92:c8:33:e7:4d:6f:94:91:
                    5a:4d:41:08:0c:c6:7d:fe:38:40:dc:ee:a1:b8:1e:
                    83:54:3b:53:c1:6a:ae:bf:ec:f0:bd:6b:c5:43:10:
                    3c:b8:7c:71:9a:2d:a9:70:d6:ad:e4:69:61:e2:38:
                    80:0e:41:15:76:61:eb:44:5b:71:b2:4d:28:32:6b:
                    27:df:5a:34:68:79:6b:de:26:e8:ef:1b:4f:69:15:
                    1f:e6:75:46:5d:bf:34:64:80:b8:c5:ba:26:d7:58:
                    b1:a2:92:21:d0:79:62:c6:c4:98:1b:f5:0d:81:ca:
                    ab:60:85:d7:6b:e6:83:40:09
                Exponent: 65537 (0x10001)
        X509v3 extensions:
            X509v3 Basic Constraints: 
                CA:FALSE
            Netscape Cert Type: 
                SSL Client, SSL Server, S/MIME, Object Signing
            X509v3 Key Usage: 
                Digital Signature, Non Repudiation, Key Encipherment, Data Encipherment
            Netscape Comment: 
                Certificate generated for UNICORE TESTING
            X509v3 Subject Key Identifier: 
                7A:DB:6A:04:1E:31:9C:DA:A0:BA:1A:40:4F:67:74:61:91:71:9F:F3
            X509v3 Authority Key Identifier: 
                keyid:F4:AF:F4:C8:6E:F0:7F:1A:54:45:88:5C:86:8D:76:D4:0C:ED:4E:5D

    Signature Algorithm: sha256WithRSAEncryption
         aa:d6:09:21:27:ea:17:6a:2a:fa:4c:9c:5c:0a:c6:81:8a:f8:
         e5:7b:cc:23:cb:0c:3c:6e:dd:57:25:a7:95:d1:1f:4e:b2:8e:
         31:e3:4d:d2:58:20:1a:47:06:b9:e4:52:58:83:94:46:f7:53:
         f2:a7:14:ec:35:90:75:b0:7a:b4:66:e6:5a:db:5e:18:0d:5d:
         35:ef:b8:0b:27:50:ab:57:b7:8c:a4:55:05:09:a6:d1:30:f8:
         15:11:36:11:d3:9c:74:e2:f2:90:d7:79:37:17:bb:99:ce:15:
         31:54:c1:36:f3:ec:d1:fc:de:74:5a:bf:82:f8:12:49:12:04:
         64:9f
-----BEGIN CERTIFICATE-----
MIICijCCAfOgAwIBAgIJAPYkolEv967RMA0GCSqGSIb3DQEBCwUAMDExCzAJBgNV
BAYTAkVVMRAwDgYDVQQKDAdVTklDT1JFMRAwDgYDVQQDDAdEZW1vIENBMB4XDTE0
MTIwNDE0MjkwOFoXDTM0MTEyOTE0MjkwOFowMjELMAkGA1UEBhMCRVUxEDAOBgNV
BAoMB1VOSUNPUkUxETAPBgNVBAMMCERlbW8gVFNJMIGfMA0GCSqGSIb3DQEBAQUA
A4GNADCBiQKBgQDwAmWwAlSSyDPnTW+UkVpNQQgMxn3+OEDc7qG4HoNUO1PBaq6/
7PC9a8VDEDy4fHGaLalw1q3kaWHiOIAOQRV2YetEW3GyTSgyayffWjRoeWveJujv
G09pFR/mdUZdvzRkgLjFuibXWLGikiHQeWLGxJgb9Q2Byqtghddr5oNACQIDAQAB
o4GoMIGlMAkGA1UdEwQCMAAwEQYJYIZIAYb4QgEBBAQDAgTwMAsGA1UdDwQEAwIE
8DA4BglghkgBhvhCAQ0EKxYpQ2VydGlmaWNhdGUgZ2VuZXJhdGVkIGZvciBVTklD
T1JFIFRFU1RJTkcwHQYDVR0OBBYEFHrbagQeMZzaoLoaQE9ndGGRcZ/zMB8GA1Ud
IwQYMBaAFPSv9Mhu8H8aVEWIXIaNdtQM7U5dMA0GCSqGSIb3DQEBCwUAA4GBAKrW
CSEn6hdqKvpMnFwKxoGK+OV7zCPLDDxu3Vclp5XRH06yjjHjTdJYIBpHBrnkUliD
lEb3U/KnFOw1kHWwerRm5lrbXhgNXTXvuAsnUKtXt4ykVQUJptEw+BURNhHTnHTi
8pDXeTcXu5nOFTFUwTbz7NH83nRav4L4EkkSBGSf
-----END CERTIFICATE-----
